; Function Attrs: mustprogress nounwind uwtable
define dso_local void @_ZN4llvm10PGOOptionsC2ERKS0_(ptr noundef nonnull align 8 dereferenceable(152) %0, ptr noundef nonnull align 8 dereferenceable(152) %1) unnamed_addr #0 align 2 {
  tail call void @_ZNSt7__cxx1112basic_stringIcSt11char_traitsIcESaIcEEC1ERKS4_(ptr noundef nonnull align 8 dereferenceable(32) %0, ptr noundef nonnull align 8 dereferenceable(32) %1) #4
  %3 = getelementptr inbounds nuw i8, ptr %0, i64 32
  %4 = getelementptr inbounds nuw i8, ptr %1, i64 32
  tail call void @_ZNSt7__cxx1112basic_stringIcSt11char_traitsIcESaIcEEC1ERKS4_(ptr noundef nonnull align 8 dereferenceable(32) %3, ptr noundef nonnull align 8 dereferenceable(32) %4) #4
  %5 = getelementptr inbounds nuw i8, ptr %0, i64 64
  %6 = getelementptr inbounds nuw i8, ptr %1, i64 64
  tail call void @_ZNSt7__cxx1112basic_stringIcSt11char_traitsIcESaIcEEC1ERKS4_(ptr noundef nonnull align 8 dereferenceable(32) %5, ptr noundef nonnull align 8 dereferenceable(32) %6) #4
  %7 = getelementptr inbounds nuw i8, ptr %0, i64 96
  %8 = getelementptr inbounds nuw i8, ptr %1, i64 96
  tail call void @_ZNSt7__cxx1112basic_stringIcSt11char_traitsIcESaIcEEC1ERKS4_(ptr noundef nonnull align 8 dereferenceable(32) %7, ptr noundef nonnull align 8 dereferenceable(32) %8) #4
  %9 = getelementptr inbounds nuw i8, ptr %0, i64 128
  %10 = getelementptr inbounds nuw i8, ptr %1, i64 128
  tail call void @llvm.memcpy.p0.p0.i64(ptr noundef nonnull align 8 dereferenceable(15) %9, ptr noundef nonnull align 8 dereferenceable(15) %10, i64 15, i1 false)
  %11 = getelementptr inbounds nuw i8, ptr %0, i64 144
  %12 = getelementptr inbounds nuw i8, ptr %1, i64 144
  %13 = load ptr, ptr %12, align 8
  store ptr %13, ptr %11, align 8
  %.not.i.i = icmp eq ptr %13, null
  br i1 %.not.i.i, label %_ZN4llvm18IntrusiveRefCntPtrINS_3vfs10FileSystemEEC2ERKS3_.exit, label %14

14:                                               ; preds = %2
  %15 = getelementptr inbounds i8, ptr %13, i64 8
  %16 = atomicrmw add ptr %15, i32 1 monotonic, align 4
  br label %_ZN4llvm18IntrusiveRefCntPtrINS_3vfs10FileSystemEEC2ERKS3_.exit

_ZN4llvm18IntrusiveRefCntPtrINS_3vfs10FileSystemEEC2ERKS3_.exit: ; preds = %2, %14
  ret void
}